; ModuleID = '2/166.c'
source_filename = "2/166.c"
target datalayout = "e-m:e-p270:32:32-p271:32:32-p272:64:64-i64:64-f80:128-n8:16:32:64-S128"
target triple = "x86_64-pc-linux-gnu"

%struct.m = type { i32, i32, [27 x i8] }

@.str = private unnamed_addr constant [3 x i8] c"%d\00", align 1
@.str.1 = private unnamed_addr constant [5 x i8] c"%d%s\00", align 1
@.str.2 = private unnamed_addr constant [3 x i8] c"%c\00", align 1
@.str.3 = private unnamed_addr constant [5 x i8] c"\0A%d\0A\00", align 1
@.str.4 = private unnamed_addr constant [2 x i8] c"\0A\00", align 1

; Function Attrs: noinline nounwind uwtable
define dso_local void @main(%struct.m* noalias sret %0) #0 {
  %2 = alloca i32, align 4
  %3 = alloca i32, align 4
  %4 = alloca i32, align 4
  %5 = alloca i32, align 4
  %6 = alloca i32, align 4
  %7 = alloca [26 x i32], align 16
  %8 = alloca i32, align 4
  %9 = alloca i8*, align 8
  %10 = alloca [26 x i8], align 16
  %11 = alloca %struct.m*, align 8
  %12 = alloca %struct.m*, align 8
  %13 = alloca %struct.m*, align 8
  %14 = alloca %struct.m*, align 8
  %15 = alloca %struct.m*, align 8
  %16 = bitcast [26 x i32]* %7 to i8*
  call void @llvm.memset.p0i8.i64(i8* align 16 %16, i8 0, i64 104, i1 false)
  %17 = call i32 (i8*, ...) @__isoc99_scanf(i8* getelementptr inbounds ([3 x i8], [3 x i8]* @.str, i64 0, i64 0), i32* %2)
  %18 = load i32, i32* %2, align 4
  %19 = sext i32 %18 to i64
  %20 = call noalias i8* @calloc(i64 %19, i64 100) #4
  %21 = bitcast i8* %20 to %struct.m*
  store %struct.m* %21, %struct.m** %11, align 8
  store i32 0, i32* %4, align 4
  br label %22

22:                                               ; preds = %68, %1
  %23 = load i32, i32* %4, align 4
  %24 = load i32, i32* %2, align 4
  %25 = icmp slt i32 %23, %24
  br i1 %25, label %26, label %71

26:                                               ; preds = %22
  %27 = load %struct.m*, %struct.m** %11, align 8
  %28 = load i32, i32* %4, align 4
  %29 = sext i32 %28 to i64
  %30 = getelementptr inbounds %struct.m, %struct.m* %27, i64 %29
  %31 = getelementptr inbounds %struct.m, %struct.m* %30, i32 0, i32 0
  %32 = load %struct.m*, %struct.m** %11, align 8
  %33 = load i32, i32* %4, align 4
  %34 = sext i32 %33 to i64
  %35 = getelementptr inbounds %struct.m, %struct.m* %32, i64 %34
  %36 = getelementptr inbounds %struct.m, %struct.m* %35, i32 0, i32 2
  %37 = getelementptr inbounds [27 x i8], [27 x i8]* %36, i64 0, i64 0
  %38 = call i32 (i8*, ...) @__isoc99_scanf(i8* getelementptr inbounds ([5 x i8], [5 x i8]* @.str.1, i64 0, i64 0), i32* %31, i8* %37)
  %39 = load %struct.m*, %struct.m** %11, align 8
  %40 = load i32, i32* %4, align 4
  %41 = sext i32 %40 to i64
  %42 = getelementptr inbounds %struct.m, %struct.m* %39, i64 %41
  %43 = getelementptr inbounds %struct.m, %struct.m* %42, i32 0, i32 1
  store i32 0, i32* %43, align 4
  %44 = load %struct.m*, %struct.m** %11, align 8
  %45 = load i32, i32* %4, align 4
  %46 = sext i32 %45 to i64
  %47 = getelementptr inbounds %struct.m, %struct.m* %44, i64 %46
  %48 = getelementptr inbounds %struct.m, %struct.m* %47, i32 0, i32 2
  %49 = getelementptr inbounds [27 x i8], [27 x i8]* %48, i64 0, i64 0
  store i8* %49, i8** %9, align 8
  br label %50

50:                                               ; preds = %64, %26
  %51 = load i8*, i8** %9, align 8
  %52 = load i8, i8* %51, align 1
  %53 = sext i8 %52 to i32
  %54 = icmp ne i32 %53, 0
  br i1 %54, label %55, label %67

55:                                               ; preds = %50
  %56 = load i8*, i8** %9, align 8
  %57 = load i8, i8* %56, align 1
  %58 = sext i8 %57 to i32
  %59 = sub nsw i32 %58, 65
  %60 = sext i32 %59 to i64
  %61 = getelementptr inbounds [26 x i32], [26 x i32]* %7, i64 0, i64 %60
  %62 = load i32, i32* %61, align 4
  %63 = add nsw i32 %62, 1
  store i32 %63, i32* %61, align 4
  br label %64

64:                                               ; preds = %55
  %65 = load i8*, i8** %9, align 8
  %66 = getelementptr inbounds i8, i8* %65, i32 1
  store i8* %66, i8** %9, align 8
  br label %50

67:                                               ; preds = %50
  br label %68

68:                                               ; preds = %67
  %69 = load i32, i32* %4, align 4
  %70 = add nsw i32 %69, 1
  store i32 %70, i32* %4, align 4
  br label %22

71:                                               ; preds = %22
  %72 = getelementptr inbounds [26 x i32], [26 x i32]* %7, i64 0, i64 0
  %73 = load i32, i32* %72, align 16
  store i32 %73, i32* %8, align 4
  store i32 0, i32* %3, align 4
  store i32 1, i32* %4, align 4
  br label %74

74:                                               ; preds = %91, %71
  %75 = load i32, i32* %4, align 4
  %76 = icmp slt i32 %75, 26
  br i1 %76, label %77, label %94

77:                                               ; preds = %74
  %78 = load i32, i32* %4, align 4
  %79 = sext i32 %78 to i64
  %80 = getelementptr inbounds [26 x i32], [26 x i32]* %7, i64 0, i64 %79
  %81 = load i32, i32* %80, align 4
  %82 = load i32, i32* %8, align 4
  %83 = icmp sgt i32 %81, %82
  br i1 %83, label %84, label %90

84:                                               ; preds = %77
  %85 = load i32, i32* %4, align 4
  store i32 %85, i32* %3, align 4
  %86 = load i32, i32* %4, align 4
  %87 = sext i32 %86 to i64
  %88 = getelementptr inbounds [26 x i32], [26 x i32]* %7, i64 0, i64 %87
  %89 = load i32, i32* %88, align 4
  store i32 %89, i32* %8, align 4
  br label %90

90:                                               ; preds = %84, %77
  br label %91

91:                                               ; preds = %90
  %92 = load i32, i32* %4, align 4
  %93 = add nsw i32 %92, 1
  store i32 %93, i32* %4, align 4
  br label %74

94:                                               ; preds = %74
  %95 = load i32, i32* %3, align 4
  %96 = add nsw i32 65, %95
  %97 = call i32 (i8*, ...) @printf(i8* getelementptr inbounds ([3 x i8], [3 x i8]* @.str.2, i64 0, i64 0), i32 %96)
  store i32 0, i32* %8, align 4
  store i32 0, i32* %4, align 4
  br label %98

98:                                               ; preds = %134, %94
  %99 = load i32, i32* %4, align 4
  %100 = load i32, i32* %2, align 4
  %101 = icmp slt i32 %99, %100
  br i1 %101, label %102, label %137

102:                                              ; preds = %98
  %103 = load %struct.m*, %struct.m** %11, align 8
  %104 = load i32, i32* %4, align 4
  %105 = sext i32 %104 to i64
  %106 = getelementptr inbounds %struct.m, %struct.m* %103, i64 %105
  %107 = getelementptr inbounds %struct.m, %struct.m* %106, i32 0, i32 2
  %108 = getelementptr inbounds [27 x i8], [27 x i8]* %107, i64 0, i64 0
  store i8* %108, i8** %9, align 8
  br label %109

109:                                              ; preds = %130, %102
  %110 = load i8*, i8** %9, align 8
  %111 = load i8, i8* %110, align 1
  %112 = sext i8 %111 to i32
  %113 = icmp ne i32 %112, 0
  br i1 %113, label %114, label %133

114:                                              ; preds = %109
  %115 = load i8*, i8** %9, align 8
  %116 = load i8, i8* %115, align 1
  %117 = sext i8 %116 to i32
  %118 = load i32, i32* %3, align 4
  %119 = add nsw i32 65, %118
  %120 = icmp eq i32 %117, %119
  br i1 %120, label %121, label %129

121:                                              ; preds = %114
  %122 = load %struct.m*, %struct.m** %11, align 8
  %123 = load i32, i32* %4, align 4
  %124 = sext i32 %123 to i64
  %125 = getelementptr inbounds %struct.m, %struct.m* %122, i64 %124
  %126 = getelementptr inbounds %struct.m, %struct.m* %125, i32 0, i32 1
  store i32 1, i32* %126, align 4
  %127 = load i32, i32* %8, align 4
  %128 = add nsw i32 %127, 1
  store i32 %128, i32* %8, align 4
  br label %133

129:                                              ; preds = %114
  br label %130

130:                                              ; preds = %129
  %131 = load i8*, i8** %9, align 8
  %132 = getelementptr inbounds i8, i8* %131, i32 1
  store i8* %132, i8** %9, align 8
  br label %109

133:                                              ; preds = %121, %109
  br label %134

134:                                              ; preds = %133
  %135 = load i32, i32* %4, align 4
  %136 = add nsw i32 %135, 1
  store i32 %136, i32* %4, align 4
  br label %98

137:                                              ; preds = %98
  %138 = load i32, i32* %8, align 4
  %139 = call i32 (i8*, ...) @printf(i8* getelementptr inbounds ([5 x i8], [5 x i8]* @.str.3, i64 0, i64 0), i32 %138)
  store i32 0, i32* %4, align 4
  br label %140

140:                                              ; preds = %168, %137
  %141 = load i32, i32* %4, align 4
  %142 = load i32, i32* %2, align 4
  %143 = icmp slt i32 %141, %142
  br i1 %143, label %144, label %171

144:                                              ; preds = %140
  %145 = load %struct.m*, %struct.m** %11, align 8
  %146 = load i32, i32* %4, align 4
  %147 = sext i32 %146 to i64
  %148 = getelementptr inbounds %struct.m, %struct.m* %145, i64 %147
  %149 = getelementptr inbounds %struct.m, %struct.m* %148, i32 0, i32 1
  %150 = load i32, i32* %149, align 4
  %151 = icmp eq i32 %150, 1
  br i1 %151, label %152, label %167

152:                                              ; preds = %144
  %153 = load %struct.m*, %struct.m** %11, align 8
  %154 = load i32, i32* %4, align 4
  %155 = sext i32 %154 to i64
  %156 = getelementptr inbounds %struct.m, %struct.m* %153, i64 %155
  %157 = getelementptr inbounds %struct.m, %struct.m* %156, i32 0, i32 0
  %158 = load i32, i32* %157, align 4
  %159 = call i32 (i8*, ...) @printf(i8* getelementptr inbounds ([3 x i8], [3 x i8]* @.str, i64 0, i64 0), i32 %158)
  %160 = load i32, i32* %8, align 4
  %161 = add nsw i32 %160, -1
  store i32 %161, i32* %8, align 4
  %162 = load i32, i32* %8, align 4
  %163 = icmp sgt i32 %162, 0
  br i1 %163, label %164, label %166

164:                                              ; preds = %152
  %165 = call i32 (i8*, ...) @printf(i8* getelementptr inbounds ([2 x i8], [2 x i8]* @.str.4, i64 0, i64 0))
  br label %166

166:                                              ; preds = %164, %152
  br label %167

167:                                              ; preds = %166, %144
  br label %168

168:                                              ; preds = %167
  %169 = load i32, i32* %4, align 4
  %170 = add nsw i32 %169, 1
  store i32 %170, i32* %4, align 4
  br label %140

171:                                              ; preds = %140
  ret void
}

; Function Attrs: argmemonly nounwind willreturn
declare void @llvm.memset.p0i8.i64(i8* nocapture writeonly, i8, i64, i1 immarg) #1

declare dso_local i32 @__isoc99_scanf(i8*, ...) #2

; Function Attrs: nounwind
declare dso_local noalias i8* @calloc(i64, i64) #3

declare dso_local i32 @printf(i8*, ...) #2


!llvm.module.flags = !{!0}
!llvm.ident = !{!1}

!0 = !{i32 1, !"wchar_size", i32 4}
!1 = !{!"clang version 10.0.0-4ubuntu1 "}
